; Function Attrs: mustprogress nofree norecurse nosync nounwind willreturn memory(argmem: readwrite) uwtable
define hidden void @_ZN3euf17solve_context_eqsC2ERNS_9solve_eqsE(ptr nocapture noundef nonnull writeonly align 8 dereferenceable(152) %this, ptr noundef nonnull align 8 dereferenceable(200) %s) unnamed_addr #3 align 2 personality ptr @__gxx_personality_v0 {
invoke.cont13:
  %m2 = getelementptr inbounds i8, ptr %s, i64 8
  %0 = load ptr, ptr %m2, align 8
  store ptr %0, ptr %this, align 8
  %m_fmls = getelementptr inbounds i8, ptr %this, i64 8
  %m_fmls3 = getelementptr inbounds i8, ptr %s, i64 16
  %1 = load ptr, ptr %m_fmls3, align 8
  store ptr %1, ptr %m_fmls, align 8
  %m_solve_eqs = getelementptr inbounds i8, ptr %this, i64 16
  store ptr %s, ptr %m_solve_eqs, align 8
  %m_marks.i = getelementptr inbounds i8, ptr %this, i64 32
  tail call void @llvm.memset.p0.i64(ptr noundef nonnull align 8 dereferenceable(16) %m_marks.i, i8 0, i64 16, i1 false)
  %m_marks.i6 = getelementptr inbounds i8, ptr %this, i64 56
  tail call void @llvm.memset.p0.i64(ptr noundef nonnull align 8 dereferenceable(16) %m_marks.i6, i8 0, i64 16, i1 false)
  %m_marks.i7 = getelementptr inbounds i8, ptr %this, i64 80
  tail call void @llvm.memset.p0.i64(ptr noundef nonnull align 8 dereferenceable(16) %m_marks.i7, i8 0, i64 16, i1 false)
  %m_marks.i8 = getelementptr inbounds i8, ptr %this, i64 104
  tail call void @llvm.memset.p0.i64(ptr noundef nonnull align 8 dereferenceable(16) %m_marks.i8, i8 0, i64 16, i1 false)
  %m_marks.i9 = getelementptr inbounds i8, ptr %this, i64 128
  tail call void @llvm.memset.p0.i64(ptr noundef nonnull align 8 dereferenceable(24) %m_marks.i9, i8 0, i64 24, i1 false)
  ret void
}